target datalayout = "e-m:e-p270:32:32-p271:32:32-p272:64:64-i64:64-i128:128-f80:128-n8:16:32:64-S128"
target triple = "x86_64-pc-linux-gnu"

%struct.MtrNode = type { i32, i32, i32, i32, ptr, ptr, ptr, ptr }

; Function Attrs: nounwind uwtable
define void @Mtr_MakeNextSibling(ptr noundef %0, ptr noundef %1) #0 {
  %3 = alloca ptr, align 8
  %4 = alloca ptr, align 8
  store ptr %0, ptr %3, align 8, !tbaa !3
  store ptr %1, ptr %4, align 8, !tbaa !3
  %5 = load ptr, ptr %3, align 8, !tbaa !3
  %6 = getelementptr inbounds nuw %struct.MtrNode, ptr %5, i32 0, i32 7
  %7 = load ptr, ptr %6, align 8, !tbaa !8
  %8 = load ptr, ptr %4, align 8, !tbaa !3
  %9 = getelementptr inbounds nuw %struct.MtrNode, ptr %8, i32 0, i32 7
  store ptr %7, ptr %9, align 8, !tbaa !8
  %10 = load ptr, ptr %3, align 8, !tbaa !3
  %11 = getelementptr inbounds nuw %struct.MtrNode, ptr %10, i32 0, i32 7
  %12 = load ptr, ptr %11, align 8, !tbaa !8
  %13 = icmp ne ptr %12, null
  br i1 %13, label %14, label %20

14:                                               ; preds = %2
  %15 = load ptr, ptr %4, align 8, !tbaa !3
  %16 = load ptr, ptr %3, align 8, !tbaa !3
  %17 = getelementptr inbounds nuw %struct.MtrNode, ptr %16, i32 0, i32 7
  %18 = load ptr, ptr %17, align 8, !tbaa !8
  %19 = getelementptr inbounds nuw %struct.MtrNode, ptr %18, i32 0, i32 6
  store ptr %15, ptr %19, align 8, !tbaa !11
  br label %20

20:                                               ; preds = %14, %2
  %21 = load ptr, ptr %3, align 8, !tbaa !3
  %22 = getelementptr inbounds nuw %struct.MtrNode, ptr %21, i32 0, i32 4
  %23 = load ptr, ptr %22, align 8, !tbaa !13
  %24 = load ptr, ptr %4, align 8, !tbaa !3
  %25 = getelementptr inbounds nuw %struct.MtrNode, ptr %24, i32 0, i32 4
  store ptr %23, ptr %25, align 8, !tbaa !13
  %26 = load ptr, ptr %4, align 8, !tbaa !3
  %27 = load ptr, ptr %3, align 8, !tbaa !3
  %28 = getelementptr inbounds nuw %struct.MtrNode, ptr %27, i32 0, i32 7
  store ptr %26, ptr %28, align 8, !tbaa !8
  %29 = load ptr, ptr %3, align 8, !tbaa !3
  %30 = load ptr, ptr %4, align 8, !tbaa !3
  %31 = getelementptr inbounds nuw %struct.MtrNode, ptr %30, i32 0, i32 6
  store ptr %29, ptr %31, align 8, !tbaa !11
  ret void
}