; Function Attrs: mustprogress nofree norecurse nosync nounwind willreturn memory(write, argmem: readwrite, inaccessiblemem: none) uwtable
define void @Mtr_MakeNextSibling(ptr noundef %0, ptr noundef initializes((40, 48)) %1) local_unnamed_addr #6 {
  %3 = getelementptr inbounds nuw i8, ptr %0, i64 40
  %4 = load ptr, ptr %3, align 8, !tbaa !11
  %5 = getelementptr inbounds nuw i8, ptr %1, i64 40
  store ptr %4, ptr %5, align 8, !tbaa !11
  %.not = icmp eq ptr %4, null
  br i1 %.not, label %8, label %6

6:                                                ; preds = %2
  %7 = getelementptr inbounds nuw i8, ptr %4, i64 32
  store ptr %1, ptr %7, align 8, !tbaa !15
  br label %8

8:                                                ; preds = %6, %2
  %9 = getelementptr inbounds nuw i8, ptr %0, i64 16
  %10 = load ptr, ptr %9, align 8, !tbaa !16
  %11 = getelementptr inbounds nuw i8, ptr %1, i64 16
  store ptr %10, ptr %11, align 8, !tbaa !16
  store ptr %1, ptr %3, align 8, !tbaa !11
  %12 = getelementptr inbounds nuw i8, ptr %1, i64 32
  store ptr %0, ptr %12, align 8, !tbaa !15
  ret void
}